#include <math.h>
#include <stdio.h>
#include <stdlib.h>
#include <string.h>
#include <iostream>
using namespace std;


int main ()
{
	int n, a[100000], i, j;
	cin >> n;
	for (i = 0; i <= n - 1; i++ )
	{
		cin >> a[i];
	}
	int k, count = 0;
	cin >> k;
	for (i = 0; i <= n - 1 - count; i++ )
	{
		if (a[i] == k)
		{
			count ++ ;
			for (j = i; j <= n  - 1 - count; j++ )
			{
				a[j] = a[j + 1];
			}
			i-- ;
		}
	}
	cout << a[0];
	for (i = 1; i <= n - 1 - count; i++ )
	{
		cout << " " << a[i];
	}
	
	return 0;
}